target datalayout = "e-m:e-p270:32:32-p271:32:32-p272:64:64-i64:64-i128:128-f80:128-n8:16:32:64-S128"
target triple = "x86_64-unknown-linux-gnu"

%struct.TimersState = type { i64, i64, %struct.QemuSeqLock, %struct.QemuSpin, i16, i16, i64, i64, i64, i64, i64, ptr, ptr, ptr }
%struct.QemuSeqLock = type { i32 }
%struct.QemuSpin = type { i32 }
%struct.QemuLockable = type { ptr, ptr, ptr }

@timers_state = external global %struct.TimersState, align 8
@.str = private unnamed_addr constant [34 x i8] c"../qemu/accel/tcg/icount-common.c\00", align 1
@use_icount = dso_local global i32 0, align 4
@.str.1 = private unnamed_addr constant [17 x i8] c"icount_enabled()\00", align 1
@__PRETTY_FUNCTION__.icount_start_warp_timer = private unnamed_addr constant [35 x i8] c"void icount_start_warp_timer(void)\00", align 1
@replay_mode = external global i32, align 4
@icount_start_warp_timer.notified = internal global i8 0, align 1
@icount_sleep = internal global i8 1, align 1
@.str.2 = private unnamed_addr constant [43 x i8] c"icount sleep disabled and no active timers\00", align 1
@.str.12 = private unnamed_addr constant [101 x i8] c"/home/dtcxzyw/WorkSpace/Projects/compilers/llvm-opt-benchmark/bench/qemu/qemu/include/qemu/seqlock.h\00", align 1
@__func__.seqlock_write_begin = private unnamed_addr constant [20 x i8] c"seqlock_write_begin\00", align 1
@__func__.seqlock_write_end = private unnamed_addr constant [18 x i8] c"seqlock_write_end\00", align 1
@qtest_allowed = external global i8, align 1

; Function Attrs: nounwind sspstrong uwtable
define internal void @qemu_lockable_unlock(ptr noundef %x) #0 {
entry:
  %x.addr = alloca ptr, align 8
  store ptr %x, ptr %x.addr, align 8
  %0 = load ptr, ptr %x.addr, align 8
  %unlock = getelementptr inbounds %struct.QemuLockable, ptr %0, i32 0, i32 2
  %1 = load ptr, ptr %unlock, align 8
  %2 = load ptr, ptr %x.addr, align 8
  %object = getelementptr inbounds %struct.QemuLockable, ptr %2, i32 0, i32 0
  %3 = load ptr, ptr %object, align 8
  call void %1(ptr noundef %3)
  ret void
}

; Function Attrs: nounwind sspstrong uwtable
define internal void @seqlock_write_end(ptr noundef %sl) #0 {
entry:
  %sl.addr = alloca ptr, align 8
  %.atomictmp = alloca i32, align 4
  store ptr %sl, ptr %sl.addr, align 8
  call void asm sideeffect "", "~{memory},~{dirflag},~{fpsr},~{flags}"() #8, !srcloc !15
  fence release
  br label %do.body

do.body:                                          ; preds = %entry
  br label %while.cond

while.cond:                                       ; preds = %do.end, %do.body
  br i1 false, label %while.body, label %while.end

while.body:                                       ; preds = %while.cond
  br label %do.body1

do.body1:                                         ; preds = %while.body
  call void @g_assertion_message_expr(ptr noundef null, ptr noundef @.str.12, i32 noundef 46, ptr noundef @__func__.seqlock_write_end, ptr noundef null) #7
  unreachable

do.end:                                           ; No predecessors!
  br label %while.cond

while.end:                                        ; preds = %while.cond
  %0 = load ptr, ptr %sl.addr, align 8
  %sequence = getelementptr inbounds %struct.QemuSeqLock, ptr %0, i32 0, i32 0
  %1 = load ptr, ptr %sl.addr, align 8
  %sequence2 = getelementptr inbounds %struct.QemuSeqLock, ptr %1, i32 0, i32 0
  %2 = load i32, ptr %sequence2, align 4
  %add = add i32 %2, 1
  store i32 %add, ptr %.atomictmp, align 4
  %3 = load i32, ptr %.atomictmp, align 4
  store atomic i32 %3, ptr %sequence monotonic, align 4
  br label %do.end3

do.end3:                                          ; preds = %while.end
  ret void
}

; Function Attrs: nounwind sspstrong uwtable
define internal void @seqlock_write_begin(ptr noundef %sl) #0 {
entry:
  %sl.addr = alloca ptr, align 8
  %.atomictmp = alloca i32, align 4
  store ptr %sl, ptr %sl.addr, align 8
  br label %do.body

do.body:                                          ; preds = %entry
  br label %while.cond

while.cond:                                       ; preds = %do.end, %do.body
  br i1 false, label %while.body, label %while.end

while.body:                                       ; preds = %while.cond
  br label %do.body1

do.body1:                                         ; preds = %while.body
  call void @g_assertion_message_expr(ptr noundef null, ptr noundef @.str.12, i32 noundef 35, ptr noundef @__func__.seqlock_write_begin, ptr noundef null) #7
  unreachable

do.end:                                           ; No predecessors!
  br label %while.cond

while.end:                                        ; preds = %while.cond
  %0 = load ptr, ptr %sl.addr, align 8
  %sequence = getelementptr inbounds %struct.QemuSeqLock, ptr %0, i32 0, i32 0
  %1 = load ptr, ptr %sl.addr, align 8
  %sequence2 = getelementptr inbounds %struct.QemuSeqLock, ptr %1, i32 0, i32 0
  %2 = load i32, ptr %sequence2, align 4
  %add = add i32 %2, 1
  store i32 %add, ptr %.atomictmp, align 4
  %3 = load i32, ptr %.atomictmp, align 4
  store atomic i32 %3, ptr %sequence monotonic, align 4
  br label %do.end3

do.end3:                                          ; preds = %while.end
  call void asm sideeffect "", "~{memory},~{dirflag},~{fpsr},~{flags}"() #8, !srcloc !14
  fence release
  ret void
}

; Function Attrs: nounwind sspstrong uwtable
define internal void @qemu_lockable_lock(ptr noundef %x) #0 {
entry:
  %x.addr = alloca ptr, align 8
  store ptr %x, ptr %x.addr, align 8
  %0 = load ptr, ptr %x.addr, align 8
  %lock = getelementptr inbounds %struct.QemuLockable, ptr %0, i32 0, i32 1
  %1 = load ptr, ptr %lock, align 8
  %2 = load ptr, ptr %x.addr, align 8
  %object = getelementptr inbounds %struct.QemuLockable, ptr %2, i32 0, i32 0
  %3 = load ptr, ptr %object, align 8
  call void %1(ptr noundef %3)
  ret void
}

; Function Attrs: nounwind sspstrong uwtable
define internal void @seqlock_write_unlock_impl(ptr noundef %sl, ptr noundef %lock) #0 {
entry:
  %sl.addr = alloca ptr, align 8
  %lock.addr = alloca ptr, align 8
  store ptr %sl, ptr %sl.addr, align 8
  store ptr %lock, ptr %lock.addr, align 8
  %0 = load ptr, ptr %sl.addr, align 8
  call void @seqlock_write_end(ptr noundef %0)
  %1 = load ptr, ptr %lock.addr, align 8
  call void @qemu_lockable_unlock(ptr noundef %1)
  ret void
}

; Function Attrs: nounwind sspstrong uwtable
define internal void @seqlock_write_lock_impl(ptr noundef %sl, ptr noundef %lock) #0 {
entry:
  %sl.addr = alloca ptr, align 8
  %lock.addr = alloca ptr, align 8
  store ptr %sl, ptr %sl.addr, align 8
  store ptr %lock, ptr %lock.addr, align 8
  %0 = load ptr, ptr %lock.addr, align 8
  call void @qemu_lockable_lock(ptr noundef %0)
  %1 = load ptr, ptr %sl.addr, align 8
  call void @seqlock_write_begin(ptr noundef %1)
  ret void
}

; Function Attrs: nounwind sspstrong uwtable
define internal zeroext i1 @qtest_enabled() #0 {
entry:
  %0 = load i8, ptr @qtest_allowed, align 1
  %tobool = trunc i8 %0 to i1
  ret i1 %tobool
}

; Function Attrs: nounwind sspstrong uwtable
define dso_local void @icount_start_warp_timer() #0 {
entry:
  %x.addr.i74 = alloca ptr, align 8
  %lockable.addr.i75 = alloca ptr, align 8
  %x.addr.i67 = alloca ptr, align 8
  %lockable.addr.i68 = alloca ptr, align 8
  %x.addr.i60 = alloca ptr, align 8
  %lockable.addr.i61 = alloca ptr, align 8
  %x.addr.i = alloca ptr, align 8
  %lockable.addr.i = alloca ptr, align 8
  %clock = alloca i64, align 8
  %deadline = alloca i64, align 8
  %.compoundliteral = alloca %struct.QemuLockable, align 8
  %.atomictmp = alloca i64, align 8
  %.compoundliteral33 = alloca %struct.QemuLockable, align 8
  %.compoundliteral39 = alloca %struct.QemuLockable, align 8
  %.compoundliteral48 = alloca %struct.QemuLockable, align 8
  %0 = load i32, ptr @use_icount, align 4
  %tobool = icmp ne i32 %0, 0
  br i1 %tobool, label %if.then, label %if.else

if.then:                                          ; preds = %entry
  br label %if.end

if.else:                                          ; preds = %entry
  call void @__assert_fail(ptr noundef @.str.1, ptr noundef @.str, i32 noundef 299, ptr noundef @__PRETTY_FUNCTION__.icount_start_warp_timer) #9
  unreachable

if.end:                                           ; preds = %if.then
  %call = call zeroext i1 @runstate_is_running()
  br i1 %call, label %if.end2, label %if.then1

if.then1:                                         ; preds = %if.end
  br label %if.end59

if.end2:                                          ; preds = %if.end
  %1 = load i32, ptr @replay_mode, align 4
  %cmp = icmp ne i32 %1, 2
  br i1 %cmp, label %if.then3, label %if.else11

if.then3:                                         ; preds = %if.end2
  %call4 = call zeroext i1 @all_cpu_threads_idle()
  br i1 %call4, label %if.end6, label %if.then5

if.then5:                                         ; preds = %if.then3
  br label %if.end59

if.end6:                                          ; preds = %if.then3
  %call7 = call zeroext i1 @qtest_enabled()
  br i1 %call7, label %if.then8, label %if.end9

if.then8:                                         ; preds = %if.end6
  br label %if.end59

if.end9:                                          ; preds = %if.end6
  %call10 = call zeroext i1 @replay_checkpoint(i32 noundef 0)
  br label %if.end18

if.else11:                                        ; preds = %if.end2
  %call12 = call zeroext i1 @replay_checkpoint(i32 noundef 0)
  br i1 %call12, label %if.end17, label %if.then13

if.then13:                                        ; preds = %if.else11
  %call14 = call zeroext i1 @replay_has_event()
  br i1 %call14, label %if.then15, label %if.end16

if.then15:                                        ; preds = %if.then13
  call void @qemu_clock_notify(i32 noundef 1)
  br label %if.end16

if.end16:                                         ; preds = %if.then15, %if.then13
  br label %if.end59

if.end17:                                         ; preds = %if.else11
  br label %if.end18

if.end18:                                         ; preds = %if.end17, %if.end9
  %call19 = call i64 @qemu_clock_get_ns(i32 noundef 3)
  store i64 %call19, ptr %clock, align 8
  %call20 = call i64 @qemu_clock_deadline_ns_all(i32 noundef 1, i32 noundef -2)
  store i64 %call20, ptr %deadline, align 8
  %2 = load i64, ptr %deadline, align 8
  %cmp21 = icmp slt i64 %2, 0
  br i1 %cmp21, label %if.then22, label %if.end27

if.then22:                                        ; preds = %if.end18
  %3 = load i8, ptr @icount_sleep, align 1
  %tobool23 = trunc i8 %3 to i1
  br i1 %tobool23, label %if.end26, label %land.lhs.true

land.lhs.true:                                    ; preds = %if.then22
  %4 = load i8, ptr @icount_start_warp_timer.notified, align 1
  %tobool24 = trunc i8 %4 to i1
  br i1 %tobool24, label %if.end26, label %if.then25

if.then25:                                        ; preds = %land.lhs.true
  call void (ptr, ...) @warn_report(ptr noundef @.str.2)
  store i8 1, ptr @icount_start_warp_timer.notified, align 1
  br label %if.end26

if.end26:                                         ; preds = %if.then25, %land.lhs.true, %if.then22
  br label %if.end59

if.end27:                                         ; preds = %if.end18
  %5 = load i64, ptr %deadline, align 8
  %cmp28 = icmp sgt i64 %5, 0
  br i1 %cmp28, label %if.then29, label %if.else55

if.then29:                                        ; preds = %if.end27
  %6 = load i8, ptr @icount_sleep, align 1
  %tobool30 = trunc i8 %6 to i1
  br i1 %tobool30, label %if.else38, label %if.then31

if.then31:                                        ; preds = %if.then29
  %object = getelementptr inbounds %struct.QemuLockable, ptr %.compoundliteral, i32 0, i32 0
  %7 = getelementptr inbounds %struct.TimersState, ptr @timers_state, i32 0, i32 3
  store ptr %7, ptr %object, align 8
  %lock = getelementptr inbounds %struct.QemuLockable, ptr %.compoundliteral, i32 0, i32 1
  store ptr @qemu_spin_lock, ptr %lock, align 8
  %unlock = getelementptr inbounds %struct.QemuLockable, ptr %.compoundliteral, i32 0, i32 2
  store ptr @qemu_spin_unlock, ptr %unlock, align 8
  %8 = getelementptr inbounds %struct.TimersState, ptr @timers_state, i32 0, i32 3
  store ptr %8, ptr %x.addr.i74, align 8
  store ptr %.compoundliteral, ptr %lockable.addr.i75, align 8
  %9 = load ptr, ptr %x.addr.i74, align 8
  %tobool.i76 = icmp ne ptr %9, null
  br i1 %tobool.i76, label %cond.true.i79, label %cond.false.i77

cond.true.i79:                                    ; preds = %if.then31
  %10 = load ptr, ptr %lockable.addr.i75, align 8
  br label %qemu_make_lockable.exit80

cond.false.i77:                                   ; preds = %if.then31
  br label %qemu_make_lockable.exit80

qemu_make_lockable.exit80:                        ; preds = %cond.false.i77, %cond.true.i79
  %cond.i78 = phi ptr [ %10, %cond.true.i79 ], [ null, %cond.false.i77 ]
  %11 = getelementptr inbounds %struct.TimersState, ptr @timers_state, i32 0, i32 2
  call void @seqlock_write_lock_impl(ptr noundef %11, ptr noundef %cond.i78)
  %12 = getelementptr inbounds %struct.TimersState, ptr @timers_state, i32 0, i32 7
  %13 = load i64, ptr %12, align 8
  %14 = load i64, ptr %deadline, align 8
  %add = add i64 %13, %14
  store i64 %add, ptr %.atomictmp, align 8
  %15 = load i64, ptr %.atomictmp, align 8
  %16 = getelementptr inbounds %struct.TimersState, ptr @timers_state, i32 0, i32 7
  store atomic i64 %15, ptr %16 monotonic, align 8
  %object34 = getelementptr inbounds %struct.QemuLockable, ptr %.compoundliteral33, i32 0, i32 0
  %17 = getelementptr inbounds %struct.TimersState, ptr @timers_state, i32 0, i32 3
  store ptr %17, ptr %object34, align 8
  %lock35 = getelementptr inbounds %struct.QemuLockable, ptr %.compoundliteral33, i32 0, i32 1
  store ptr @qemu_spin_lock, ptr %lock35, align 8
  %unlock36 = getelementptr inbounds %struct.QemuLockable, ptr %.compoundliteral33, i32 0, i32 2
  store ptr @qemu_spin_unlock, ptr %unlock36, align 8
  %18 = getelementptr inbounds %struct.TimersState, ptr @timers_state, i32 0, i32 3
  store ptr %18, ptr %x.addr.i67, align 8
  store ptr %.compoundliteral33, ptr %lockable.addr.i68, align 8
  %19 = load ptr, ptr %x.addr.i67, align 8
  %tobool.i69 = icmp ne ptr %19, null
  br i1 %tobool.i69, label %cond.true.i72, label %cond.false.i70

cond.true.i72:                                    ; preds = %qemu_make_lockable.exit80
  %20 = load ptr, ptr %lockable.addr.i68, align 8
  br label %qemu_make_lockable.exit73

cond.false.i70:                                   ; preds = %qemu_make_lockable.exit80
  br label %qemu_make_lockable.exit73

qemu_make_lockable.exit73:                        ; preds = %cond.false.i70, %cond.true.i72
  %cond.i71 = phi ptr [ %20, %cond.true.i72 ], [ null, %cond.false.i70 ]
  %21 = getelementptr inbounds %struct.TimersState, ptr @timers_state, i32 0, i32 2
  call void @seqlock_write_unlock_impl(ptr noundef %21, ptr noundef %cond.i71)
  call void @qemu_clock_notify(i32 noundef 1)
  br label %if.end54

if.else38:                                        ; preds = %if.then29
  %object40 = getelementptr inbounds %struct.QemuLockable, ptr %.compoundliteral39, i32 0, i32 0
  %22 = getelementptr inbounds %struct.TimersState, ptr @timers_state, i32 0, i32 3
  store ptr %22, ptr %object40, align 8
  %lock41 = getelementptr inbounds %struct.QemuLockable, ptr %.compoundliteral39, i32 0, i32 1
  store ptr @qemu_spin_lock, ptr %lock41, align 8
  %unlock42 = getelementptr inbounds %struct.QemuLockable, ptr %.compoundliteral39, i32 0, i32 2
  store ptr @qemu_spin_unlock, ptr %unlock42, align 8
  %23 = getelementptr inbounds %struct.TimersState, ptr @timers_state, i32 0, i32 3
  store ptr %23, ptr %x.addr.i60, align 8
  store ptr %.compoundliteral39, ptr %lockable.addr.i61, align 8
  %24 = load ptr, ptr %x.addr.i60, align 8
  %tobool.i62 = icmp ne ptr %24, null
  br i1 %tobool.i62, label %cond.true.i65, label %cond.false.i63

cond.true.i65:                                    ; preds = %if.else38
  %25 = load ptr, ptr %lockable.addr.i61, align 8
  br label %qemu_make_lockable.exit66

cond.false.i63:                                   ; preds = %if.else38
  br label %qemu_make_lockable.exit66

qemu_make_lockable.exit66:                        ; preds = %cond.false.i63, %cond.true.i65
  %cond.i64 = phi ptr [ %25, %cond.true.i65 ], [ null, %cond.false.i63 ]
  %26 = getelementptr inbounds %struct.TimersState, ptr @timers_state, i32 0, i32 2
  call void @seqlock_write_lock_impl(ptr noundef %26, ptr noundef %cond.i64)
  %27 = getelementptr inbounds %struct.TimersState, ptr @timers_state, i32 0, i32 8
  %28 = load i64, ptr %27, align 8
  %cmp44 = icmp eq i64 %28, -1
  br i1 %cmp44, label %if.then46, label %lor.lhs.false

lor.lhs.false:                                    ; preds = %qemu_make_lockable.exit66
  %29 = getelementptr inbounds %struct.TimersState, ptr @timers_state, i32 0, i32 8
  %30 = load i64, ptr %29, align 8
  %31 = load i64, ptr %clock, align 8
  %cmp45 = icmp sgt i64 %30, %31
  br i1 %cmp45, label %if.then46, label %if.end47

if.then46:                                        ; preds = %lor.lhs.false, %qemu_make_lockable.exit66
  %32 = load i64, ptr %clock, align 8
  %33 = getelementptr inbounds %struct.TimersState, ptr @timers_state, i32 0, i32 8
  store i64 %32, ptr %33, align 8
  br label %if.end47

if.end47:                                         ; preds = %if.then46, %lor.lhs.false
  %object49 = getelementptr inbounds %struct.QemuLockable, ptr %.compoundliteral48, i32 0, i32 0
  %34 = getelementptr inbounds %struct.TimersState, ptr @timers_state, i32 0, i32 3
  store ptr %34, ptr %object49, align 8
  %lock50 = getelementptr inbounds %struct.QemuLockable, ptr %.compoundliteral48, i32 0, i32 1
  store ptr @qemu_spin_lock, ptr %lock50, align 8
  %unlock51 = getelementptr inbounds %struct.QemuLockable, ptr %.compoundliteral48, i32 0, i32 2
  store ptr @qemu_spin_unlock, ptr %unlock51, align 8
  %35 = getelementptr inbounds %struct.TimersState, ptr @timers_state, i32 0, i32 3
  store ptr %35, ptr %x.addr.i, align 8
  store ptr %.compoundliteral48, ptr %lockable.addr.i, align 8
  %36 = load ptr, ptr %x.addr.i, align 8
  %tobool.i = icmp ne ptr %36, null
  br i1 %tobool.i, label %cond.true.i, label %cond.false.i

cond.true.i:                                      ; preds = %if.end47
  %37 = load ptr, ptr %lockable.addr.i, align 8
  br label %qemu_make_lockable.exit

cond.false.i:                                     ; preds = %if.end47
  br label %qemu_make_lockable.exit

qemu_make_lockable.exit:                          ; preds = %cond.false.i, %cond.true.i
  %cond.i = phi ptr [ %37, %cond.true.i ], [ null, %cond.false.i ]
  %38 = getelementptr inbounds %struct.TimersState, ptr @timers_state, i32 0, i32 2
  call void @seqlock_write_unlock_impl(ptr noundef %38, ptr noundef %cond.i)
  %39 = getelementptr inbounds %struct.TimersState, ptr @timers_state, i32 0, i32 13
  %40 = load ptr, ptr %39, align 8
  %41 = load i64, ptr %clock, align 8
  %42 = load i64, ptr %deadline, align 8
  %add53 = add i64 %41, %42
  call void @timer_mod_anticipate(ptr noundef %40, i64 noundef %add53)
  br label %if.end54

if.end54:                                         ; preds = %qemu_make_lockable.exit, %qemu_make_lockable.exit73
  br label %if.end59

if.else55:                                        ; preds = %if.end27
  %43 = load i64, ptr %deadline, align 8
  %cmp56 = icmp eq i64 %43, 0
  br i1 %cmp56, label %if.then57, label %if.end58

if.then57:                                        ; preds = %if.else55
  call void @qemu_clock_notify(i32 noundef 1)
  br label %if.end58

if.end58:                                         ; preds = %if.then57, %if.else55
  br label %if.end59

if.end59:                                         ; preds = %if.end58, %if.end54, %if.end26, %if.end16, %if.then8, %if.then5, %if.then1
  ret void
}