; Function Attrs: nounwind sspstrong uwtable
define dso_local void @icount_start_warp_timer() local_unnamed_addr #0 {
entry:
  %0 = load i32, ptr @use_icount, align 4
  %tobool.not = icmp eq i32 %0, 0
  br i1 %tobool.not, label %if.else, label %if.end

if.else:                                          ; preds = %entry
  tail call void @__assert_fail(ptr noundef nonnull @.str.1, ptr noundef nonnull @.str, i32 noundef 299, ptr noundef nonnull @__PRETTY_FUNCTION__.icount_start_warp_timer) #11
  unreachable

if.end:                                           ; preds = %entry
  %call = tail call zeroext i1 @runstate_is_running() #9
  br i1 %call, label %if.end2, label %if.end59

if.end2:                                          ; preds = %if.end
  %1 = load i32, ptr @replay_mode, align 4
  %cmp.not = icmp eq i32 %1, 2
  br i1 %cmp.not, label %if.else11, label %if.then3

if.then3:                                         ; preds = %if.end2
  %call4 = tail call zeroext i1 @all_cpu_threads_idle() #9
  br i1 %call4, label %if.end6, label %if.end59

if.end6:                                          ; preds = %if.then3
  %2 = load i8, ptr @qtest_allowed, align 1
  %tobool.i = trunc i8 %2 to i1
  br i1 %tobool.i, label %if.end59, label %if.end9

if.end9:                                          ; preds = %if.end6
  %call10 = tail call zeroext i1 @replay_checkpoint(i32 noundef 0) #9
  br label %if.end18

if.else11:                                        ; preds = %if.end2
  %call12 = tail call zeroext i1 @replay_checkpoint(i32 noundef 0) #9
  br i1 %call12, label %if.end18, label %if.then13

if.then13:                                        ; preds = %if.else11
  %call14 = tail call zeroext i1 @replay_has_event() #9
  br i1 %call14, label %if.then15, label %if.end59

if.then15:                                        ; preds = %if.then13
  tail call void @qemu_clock_notify(i32 noundef 1) #9
  br label %if.end59

if.end18:                                         ; preds = %if.else11, %if.end9
  %call19 = tail call i64 @qemu_clock_get_ns(i32 noundef 3) #9
  %call20 = tail call i64 @qemu_clock_deadline_ns_all(i32 noundef 1, i32 noundef -2) #9
  %cmp21 = icmp slt i64 %call20, 0
  br i1 %cmp21, label %if.then22, label %if.end27

if.then22:                                        ; preds = %if.end18
  %3 = load i8, ptr @icount_sleep, align 1
  %tobool23 = trunc nuw i8 %3 to i1
  br i1 %tobool23, label %if.end59, label %land.lhs.true

land.lhs.true:                                    ; preds = %if.then22
  %.b7 = load i1, ptr @icount_start_warp_timer.notified, align 1
  br i1 %.b7, label %if.end59, label %if.then25

if.then25:                                        ; preds = %land.lhs.true
  tail call void (ptr, ...) @warn_report(ptr noundef nonnull @.str.2) #9
  store i1 true, ptr @icount_start_warp_timer.notified, align 1
  br label %if.end59

if.end27:                                         ; preds = %if.end18
  %cmp28.not = icmp eq i64 %call20, 0
  br i1 %cmp28.not, label %if.then57, label %if.then29

if.then29:                                        ; preds = %if.end27
  %4 = load i8, ptr @icount_sleep, align 1
  %tobool30 = trunc nuw i8 %4 to i1
  %5 = atomicrmw xchg ptr getelementptr inbounds nuw (i8, ptr @timers_state, i64 20), i32 1 seq_cst, align 4
  %tobool.not3.i = icmp eq i32 %5, 0
  br i1 %tobool.not3.i, label %qemu_spin_lock.exit, label %while.cond6.preheader.i

while.cond.loopexit.i:                            ; preds = %while.body16.i, %while.cond6.preheader.i
  %6 = atomicrmw xchg ptr getelementptr inbounds nuw (i8, ptr @timers_state, i64 20), i32 1 seq_cst, align 4
  %tobool.not.i = icmp eq i32 %6, 0
  br i1 %tobool.not.i, label %qemu_spin_lock.exit, label %while.cond6.preheader.i, !llvm.loop !5

while.cond6.preheader.i:                          ; preds = %if.then29, %while.cond.loopexit.i
  %7 = load atomic i32, ptr getelementptr inbounds nuw (i8, ptr @timers_state, i64 20) monotonic, align 4
  %tobool15.not2.i = icmp eq i32 %7, 0
  br i1 %tobool15.not2.i, label %while.cond.loopexit.i, label %while.body16.i

while.body16.i:                                   ; preds = %while.cond6.preheader.i, %while.body16.i
  tail call void asm sideeffect "rep; nop", "~{memory},~{dirflag},~{fpsr},~{flags}"() #9, !srcloc !7
  %8 = load atomic i32, ptr getelementptr inbounds nuw (i8, ptr @timers_state, i64 20) monotonic, align 4
  %tobool15.not.i = icmp eq i32 %8, 0
  br i1 %tobool15.not.i, label %while.cond.loopexit.i, label %while.body16.i, !llvm.loop !8

qemu_spin_lock.exit:                              ; preds = %while.cond.loopexit.i, %if.then29
  %9 = load i32, ptr getelementptr inbounds nuw (i8, ptr @timers_state, i64 16), align 8
  %add.i.i13 = add i32 %9, 1
  store atomic i32 %add.i.i13, ptr getelementptr inbounds nuw (i8, ptr @timers_state, i64 16) monotonic, align 8
  tail call void asm sideeffect "", "~{memory},~{dirflag},~{fpsr},~{flags}"() #9
  fence release
  br i1 %tobool30, label %if.else38, label %if.then31

if.then31:                                        ; preds = %qemu_spin_lock.exit
  %10 = load i64, ptr getelementptr inbounds nuw (i8, ptr @timers_state, i64 40), align 8
  %add = add i64 %10, %call20
  store atomic i64 %add, ptr getelementptr inbounds nuw (i8, ptr @timers_state, i64 40) monotonic, align 8
  tail call void asm sideeffect "", "~{memory},~{dirflag},~{fpsr},~{flags}"() #9, !srcloc !10
  fence release
  %11 = load i32, ptr getelementptr inbounds nuw (i8, ptr @timers_state, i64 16), align 8
  %add.i.i12 = add i32 %11, 1
  store atomic i32 %add.i.i12, ptr getelementptr inbounds nuw (i8, ptr @timers_state, i64 16) monotonic, align 8
  store atomic i32 0, ptr getelementptr inbounds nuw (i8, ptr @timers_state, i64 20) release, align 4
  tail call void @qemu_clock_notify(i32 noundef 1) #9
  br label %if.end59

if.else38:                                        ; preds = %qemu_spin_lock.exit
  %12 = load i64, ptr getelementptr inbounds nuw (i8, ptr @timers_state, i64 48), align 8
  %cmp44 = icmp eq i64 %12, -1
  %cmp45 = icmp sgt i64 %12, %call19
  %or.cond = select i1 %cmp44, i1 true, i1 %cmp45
  br i1 %or.cond, label %if.then46, label %if.end47

if.then46:                                        ; preds = %if.else38
  store i64 %call19, ptr getelementptr inbounds nuw (i8, ptr @timers_state, i64 48), align 8
  br label %if.end47

if.end47:                                         ; preds = %if.else38, %if.then46
  tail call void asm sideeffect "", "~{memory},~{dirflag},~{fpsr},~{flags}"() #9, !srcloc !10
  fence release
  %13 = load i32, ptr getelementptr inbounds nuw (i8, ptr @timers_state, i64 16), align 8
  %add.i.i14 = add i32 %13, 1
  store atomic i32 %add.i.i14, ptr getelementptr inbounds nuw (i8, ptr @timers_state, i64 16) monotonic, align 8
  store atomic i32 0, ptr getelementptr inbounds nuw (i8, ptr @timers_state, i64 20) release, align 4
  %14 = load ptr, ptr getelementptr inbounds nuw (i8, ptr @timers_state, i64 88), align 8
  %add53 = add i64 %call20, %call19
  tail call void @timer_mod_anticipate(ptr noundef %14, i64 noundef %add53) #9
  br label %if.end59

if.then57:                                        ; preds = %if.end27
  tail call void @qemu_clock_notify(i32 noundef 1) #9
  br label %if.end59

if.end59:                                         ; preds = %if.then57, %if.then31, %if.end47, %if.then22, %land.lhs.true, %if.then25, %if.then13, %if.then15, %if.end6, %if.then3, %if.end
  ret void
}